target datalayout = "e-m:e-p270:32:32-p271:32:32-p272:64:64-i64:64-i128:128-f80:128-n8:16:32:64-S128"
target triple = "x86_64-pc-linux-gnu"

@.str.57 = private unnamed_addr constant [14 x i8] c"time overflow\00", align 1

; Function Attrs: nounwind uwtable
define internal void @time_overflow() #0 {
  call void (ptr, ...) @error(ptr noundef @.str.57)
  call void @exit(i32 noundef 1) #17
  unreachable
}

; Function Attrs: nounwind uwtable
define internal i64 @tadd(i64 noundef %0, i64 noundef %1) #0 {
  %3 = alloca i64, align 8
  %4 = alloca i64, align 8
  %5 = alloca i64, align 8
  store i64 %0, ptr %4, align 8
  store i64 %1, ptr %5, align 8
  %6 = load i64, ptr %4, align 8
  %7 = icmp slt i64 %6, 0
  br i1 %7, label %8, label %19

8:                                                ; preds = %2
  %9 = load i64, ptr %5, align 8
  %10 = load i64, ptr %4, align 8
  %11 = sub i64 -9223372036854775808, %10
  %12 = icmp slt i64 %9, %11
  br i1 %12, label %13, label %18

13:                                               ; preds = %8
  %14 = load i64, ptr %4, align 8
  %15 = icmp ne i64 %14, -9223372036854775808
  br i1 %15, label %16, label %17

16:                                               ; preds = %13
  call void @time_overflow()
  br label %17

17:                                               ; preds = %16, %13
  store i64 -9223372036854775808, ptr %3, align 8
  br label %34

18:                                               ; preds = %8
  br label %30

19:                                               ; preds = %2
  %20 = load i64, ptr %4, align 8
  %21 = sub i64 9223372036854775807, %20
  %22 = load i64, ptr %5, align 8
  %23 = icmp slt i64 %21, %22
  br i1 %23, label %24, label %29

24:                                               ; preds = %19
  %25 = load i64, ptr %4, align 8
  %26 = icmp ne i64 %25, 9223372036854775807
  br i1 %26, label %27, label %28

27:                                               ; preds = %24
  call void @time_overflow()
  br label %28

28:                                               ; preds = %27, %24
  store i64 9223372036854775807, ptr %3, align 8
  br label %34

29:                                               ; preds = %19
  br label %30

30:                                               ; preds = %29, %18
  %31 = load i64, ptr %4, align 8
  %32 = load i64, ptr %5, align 8
  %33 = add i64 %31, %32
  store i64 %33, ptr %3, align 8
  br label %34

34:                                               ; preds = %30, %28, %17
  %35 = load i64, ptr %3, align 8
  ret i64 %35
}