; Function Attrs: nounwind uwtable
define internal fastcc noundef i64 @tadd(i64 noundef %0, i64 noundef %1) unnamed_addr #0 {
  %3 = icmp slt i64 %0, 0
  br i1 %3, label %4, label %9

4:                                                ; preds = %2
  %5 = sub nsw i64 -9223372036854775808, %0
  %6 = icmp slt i64 %1, %5
  br i1 %6, label %7, label %14

7:                                                ; preds = %4
  %.not11 = icmp eq i64 %0, -9223372036854775808
  br i1 %.not11, label %16, label %8

8:                                                ; preds = %7
  tail call void (ptr, ...) @error(ptr noundef nonnull @.str.57)
  tail call void @exit(i32 noundef 1) #29
  unreachable

9:                                                ; preds = %2
  %10 = sub nuw nsw i64 9223372036854775807, %0
  %11 = icmp slt i64 %10, %1
  br i1 %11, label %12, label %14

12:                                               ; preds = %9
  %.not = icmp eq i64 %0, 9223372036854775807
  br i1 %.not, label %16, label %13

13:                                               ; preds = %12
  tail call void (ptr, ...) @error(ptr noundef nonnull @.str.57)
  tail call void @exit(i32 noundef 1) #29
  unreachable

14:                                               ; preds = %9, %4
  %15 = add i64 %1, %0
  br label %16

16:                                               ; preds = %12, %7, %14
  %.0 = phi i64 [ %15, %14 ], [ -9223372036854775808, %7 ], [ 9223372036854775807, %12 ]
  ret i64 %.0
}